target datalayout = "e-m:e-p270:32:32-p271:32:32-p272:64:64-i64:64-i128:128-f80:128-n8:16:32:64-S128"
target triple = "x86_64-pc-linux-gnu"

%struct.Type_ = type { i32, ptr, ptr, ptr, %union.anon.85, ptr, ptr, %union.anon.87 }
%union.anon.85 = type { ptr }
%union.anon.87 = type { %struct.TypeFunction }
%struct.TypeFunction = type { ptr, ptr, ptr }
%struct.Decl_ = type { ptr, ptr, %union.SourceSpan, i64, %union.anon.5, i32, %union.anon.6, i64, ptr, ptr, ptr, %union.anon.7 }
%union.SourceSpan = type { i64 }
%union.anon.5 = type { ptr }
%union.anon.6 = type { i16 }
%union.anon.7 = type { %struct.FuncDecl }
%struct.FuncDecl = type { i32, [4 x i8], %struct.Signature_, i32, i32, %union.anon.14 }
%struct.Signature_ = type <{ %struct.CalleeAttributes, i16, i8, i32, i32, [4 x i8], ptr }>
%struct.CalleeAttributes = type { i8 }
%union.anon.14 = type { %struct.anon.15 }
%struct.anon.15 = type { i16, %union.anon.16 }
%union.anon.16 = type { ptr }
%struct.anon.8 = type { ptr, ptr, %union.anon.9 }
%union.anon.9 = type { %struct.BitStructDecl }
%struct.BitStructDecl = type { ptr, ptr, i8 }
%struct.StructDecl = type { i32, ptr, i32, i16 }
%struct.VHeader_ = type { i32, i32, [0 x i8] }

; Function Attrs: nounwind uwtable
define internal zeroext i1 @type_is_simd_vector(ptr noundef %0) #0 {
  %2 = alloca ptr, align 8
  store ptr %0, ptr %2, align 8
  %3 = load ptr, ptr %2, align 8
  %4 = getelementptr inbounds %struct.Type_, ptr %3, i32 0, i32 1
  %5 = load ptr, ptr %4, align 8
  store ptr %5, ptr %2, align 8
  %6 = load ptr, ptr %2, align 8
  %7 = getelementptr inbounds %struct.Type_, ptr %6, i32 0, i32 0
  %8 = load i32, ptr %7, align 8
  %9 = icmp eq i32 %8, 37
  br i1 %9, label %10, label %14

10:                                               ; preds = %1
  %11 = load ptr, ptr %2, align 8
  %12 = call i32 @type_size(ptr noundef %11)
  %13 = icmp eq i32 %12, 16
  br label %14

14:                                               ; preds = %10, %1
  %15 = phi i1 [ false, %1 ], [ %13, %10 ]
  ret i1 %15
}

; Function Attrs: nounwind uwtable
define internal zeroext i1 @type_is_union_struct_with_simd_vector(ptr noundef %0) #0 {
  %2 = alloca i32, align 4
  %3 = alloca ptr, align 8
  %4 = alloca ptr, align 8
  %5 = alloca ptr, align 8
  %6 = alloca i32, align 4
  %7 = alloca i1, align 1
  %8 = alloca ptr, align 8
  %9 = alloca ptr, align 8
  %10 = alloca i32, align 4
  %11 = alloca i32, align 4
  %12 = alloca ptr, align 8
  store ptr %0, ptr %8, align 8
  %13 = load ptr, ptr %8, align 8
  store ptr %13, ptr %5, align 8
  %14 = load ptr, ptr %5, align 8
  %15 = load i32, ptr %14, align 8
  store i32 %15, ptr %6, align 4
  %16 = load i32, ptr %6, align 4
  %17 = icmp eq i32 %16, 31
  br i1 %17, label %18, label %23

18:                                               ; preds = %1
  %19 = load ptr, ptr %5, align 8
  %20 = getelementptr inbounds %struct.Type_, ptr %19, i32 0, i32 1
  %21 = load ptr, ptr %20, align 8
  %22 = load i32, ptr %21, align 8
  store i32 %22, ptr %6, align 4
  br label %23

23:                                               ; preds = %18, %1
  %24 = load i32, ptr %6, align 4
  %25 = icmp eq i32 %24, 27
  br i1 %25, label %29, label %26

26:                                               ; preds = %23
  %27 = load i32, ptr %6, align 4
  %28 = icmp eq i32 %27, 26
  br label %29

29:                                               ; preds = %26, %23
  %30 = phi i1 [ true, %23 ], [ %28, %26 ]
  br i1 %30, label %32, label %31

31:                                               ; preds = %29
  store i1 false, ptr %7, align 1
  br label %75

32:                                               ; preds = %29
  %33 = load ptr, ptr %8, align 8
  %34 = getelementptr inbounds %struct.Type_, ptr %33, i32 0, i32 7
  %35 = load ptr, ptr %34, align 8
  %36 = getelementptr inbounds %struct.Decl_, ptr %35, i32 0, i32 11
  %37 = getelementptr inbounds %struct.anon.8, ptr %36, i32 0, i32 2
  %38 = getelementptr inbounds %struct.StructDecl, ptr %37, i32 0, i32 1
  %39 = load ptr, ptr %38, align 8
  store ptr %39, ptr %9, align 8
  store i32 0, ptr %10, align 4
  %40 = load ptr, ptr %9, align 8
  store ptr %40, ptr %3, align 8
  %41 = load ptr, ptr %3, align 8
  %42 = icmp ne ptr %41, null
  br i1 %42, label %44, label %43

43:                                               ; preds = %32
  store i32 0, ptr %2, align 4
  br label %49

44:                                               ; preds = %32
  %45 = load ptr, ptr %3, align 8
  store ptr %45, ptr %4, align 8
  %46 = load ptr, ptr %4, align 8
  %47 = getelementptr inbounds %struct.VHeader_, ptr %46, i64 -1
  %48 = load i32, ptr %47, align 4
  store i32 %48, ptr %2, align 4
  br label %49

49:                                               ; preds = %44, %43
  %50 = load i32, ptr %2, align 4
  store i32 %50, ptr %11, align 4
  br label %51

51:                                               ; preds = %71, %49
  %52 = load i32, ptr %10, align 4
  %53 = load i32, ptr %11, align 4
  %54 = icmp ult i32 %52, %53
  br i1 %54, label %55, label %74

55:                                               ; preds = %51
  %56 = load ptr, ptr %9, align 8
  %57 = load i32, ptr %10, align 4
  %58 = zext i32 %57 to i64
  %59 = getelementptr inbounds ptr, ptr %56, i64 %58
  %60 = load ptr, ptr %59, align 8
  %61 = getelementptr inbounds %struct.Decl_, ptr %60, i32 0, i32 10
  %62 = load ptr, ptr %61, align 8
  store ptr %62, ptr %12, align 8
  %63 = load ptr, ptr %12, align 8
  %64 = call zeroext i1 @type_is_simd_vector(ptr noundef %63)
  br i1 %64, label %65, label %66

65:                                               ; preds = %55
  store i1 true, ptr %7, align 1
  br label %75

66:                                               ; preds = %55
  %67 = load ptr, ptr %12, align 8
  %68 = call zeroext i1 @type_is_union_struct_with_simd_vector(ptr noundef %67)
  br i1 %68, label %69, label %70

69:                                               ; preds = %66
  store i1 true, ptr %7, align 1
  br label %75

70:                                               ; preds = %66
  br label %71

71:                                               ; preds = %70
  %72 = load i32, ptr %10, align 4
  %73 = add i32 %72, 1
  store i32 %73, ptr %10, align 4
  br label %51, !llvm.loop !10

74:                                               ; preds = %51
  store i1 false, ptr %7, align 1
  br label %75

75:                                               ; preds = %74, %69, %65, %31
  %76 = load i1, ptr %7, align 1
  ret i1 %76
}