; Function Attrs: nounwind uwtable
define internal fastcc noundef zeroext i1 @type_is_union_struct_with_simd_vector(ptr nocapture noundef readonly %0) unnamed_addr #0 {
  %2 = load i32, ptr %0, align 8
  %3 = icmp eq i32 %2, 31
  br i1 %3, label %4, label %8

4:                                                ; preds = %1
  %5 = getelementptr inbounds i8, ptr %0, i64 8
  %6 = load ptr, ptr %5, align 8
  %7 = load i32, ptr %6, align 8
  br label %8

8:                                                ; preds = %4, %1
  %.019 = phi i32 [ %7, %4 ], [ %2, %1 ]
  %9 = and i32 %.019, -2
  %10 = icmp eq i32 %9, 26
  br i1 %10, label %11, label %.loopexit

11:                                               ; preds = %8
  %12 = getelementptr inbounds i8, ptr %0, i64 56
  %13 = load ptr, ptr %12, align 8
  %14 = getelementptr inbounds i8, ptr %13, i64 104
  %15 = load ptr, ptr %14, align 8
  %.not = icmp eq ptr %15, null
  br i1 %.not, label %.loopexit, label %16

16:                                               ; preds = %11
  %17 = getelementptr inbounds i8, ptr %15, i64 -8
  %18 = load i32, ptr %17, align 4
  %.not27 = icmp eq i32 %18, 0
  br i1 %.not27, label %.loopexit, label %.lr.ph.preheader

.lr.ph.preheader:                                 ; preds = %16
  %wide.trip.count = zext i32 %18 to i64
  br label %.lr.ph

19:                                               ; preds = %type_is_simd_vector.exit.thread
  %indvars.iv.next = add nuw nsw i64 %indvars.iv, 1
  %exitcond.not = icmp eq i64 %indvars.iv.next, %wide.trip.count
  br i1 %exitcond.not, label %.loopexit, label %.lr.ph, !llvm.loop !12

.lr.ph:                                           ; preds = %.lr.ph.preheader, %19
  %indvars.iv = phi i64 [ 0, %.lr.ph.preheader ], [ %indvars.iv.next, %19 ]
  %20 = getelementptr inbounds ptr, ptr %15, i64 %indvars.iv
  %21 = load ptr, ptr %20, align 8
  %22 = getelementptr inbounds i8, ptr %21, i64 72
  %23 = load ptr, ptr %22, align 8
  %24 = getelementptr i8, ptr %23, i64 8
  %.val = load ptr, ptr %24, align 8
  %25 = load i32, ptr %.val, align 8
  %26 = icmp eq i32 %25, 37
  br i1 %26, label %type_is_simd_vector.exit, label %type_is_simd_vector.exit.thread

type_is_simd_vector.exit:                         ; preds = %.lr.ph
  %27 = tail call i32 @type_size(ptr noundef nonnull %.val) #4
  %28 = icmp eq i32 %27, 16
  br i1 %28, label %.loopexit, label %type_is_simd_vector.exit.thread

type_is_simd_vector.exit.thread:                  ; preds = %.lr.ph, %type_is_simd_vector.exit
  %29 = tail call fastcc zeroext i1 @type_is_union_struct_with_simd_vector(ptr noundef nonnull %23)
  br i1 %29, label %.loopexit, label %19

.loopexit:                                        ; preds = %type_is_simd_vector.exit, %type_is_simd_vector.exit.thread, %19, %11, %16, %8
  %.021 = phi i1 [ false, %8 ], [ false, %16 ], [ false, %11 ], [ true, %type_is_simd_vector.exit ], [ true, %type_is_simd_vector.exit.thread ], [ false, %19 ]
  ret i1 %.021
}